
	.include "/macros/function.inc"

	.text
	arm_func_start _ZN12CommonScreen5stateEv
_ZN12CommonScreen5stateEv: ; 0x0202B1C8
	mvn r0, #0
	bx lr
	arm_func_end _ZN12CommonScreen5stateEv

	arm_func_start _ZN12CommonScreen6signalEi
_ZN12CommonScreen6signalEi: ; 0x0202B1D0
	mvn r0, #0
	bx lr
	arm_func_end _ZN12CommonScreen6signalEi

	arm_func_start _ZN12CommonScreen8transferEPv
_ZN12CommonScreen8transferEPv: ; 0x0202B1D8
	mvn r0, #0
	bx lr
	arm_func_end _ZN12CommonScreen8transferEPv

	arm_func_start _ZN12CommonScreen7vFUN_38Ev
_ZN12CommonScreen7vFUN_38Ev: ; 0x0202B1E0
	mov r0, #0
	bx lr
	arm_func_end _ZN12CommonScreen7vFUN_38Ev

	arm_func_start _ZN12CommonScreen7vFUN_34Ev
_ZN12CommonScreen7vFUN_34Ev: ; 0x0202B1E8
	mov r0, #0
	bx lr
	arm_func_end _ZN12CommonScreen7vFUN_34Ev

	arm_func_start _ZN12CommonScreen7vFUN_30Ev
_ZN12CommonScreen7vFUN_30Ev: ; 0x0202B1F0
	mov r0, #0
	bx lr
	arm_func_end _ZN12CommonScreen7vFUN_30Ev

	arm_func_start _ZN12CommonScreen7vFUN_2CEv
_ZN12CommonScreen7vFUN_2CEv: ; 0x0202B1F8
	mov r0, #1
	bx lr
	arm_func_end _ZN12CommonScreen7vFUN_2CEv

	arm_func_start _ZN12CommonScreen7vFUN_28Ev
_ZN12CommonScreen7vFUN_28Ev: ; 0x0202B200
	bx lr
	arm_func_end _ZN12CommonScreen7vFUN_28Ev

	arm_func_start _ZN12CommonScreen7vFUN_24Ev
_ZN12CommonScreen7vFUN_24Ev: ; 0x0202B204
	bx lr
	arm_func_end _ZN12CommonScreen7vFUN_24Ev

	arm_func_start _ZN12CommonScreen7vFUN_14Ev
_ZN12CommonScreen7vFUN_14Ev: ; 0x0202B208
	mov r0, #0
	bx lr
	arm_func_end _ZN12CommonScreen7vFUN_14Ev
