
	.include "/macros/function.inc"
	.include "/include/overlay116.inc"

	.data
	.global ov116_02124EC0
ov116_02124EC0:
	.word FUN_ov116_02124e38
	.word FUN_ov116_02124e24
	.word _ZN15CommonSubScreen10updateKeysEtt
	.word _ZN15CommonSubScreen8updateTPEP6TPData
	.word FUN_ov1_020db194
	.word _ZN12CommonScreen7vFUN_14Ev
	.word FUN_ov1_020daf84
	.word FUN_ov1_020db05c
	.word FUN_ov1_020db1e8
	.word _ZN12CommonScreen7vFUN_24Ev
	.word _ZN12CommonScreen7vFUN_28Ev
	.word _ZN12CommonScreen7vFUN_2CEv
	.word _ZN12CommonScreen7vFUN_30Ev
	.word _ZN12CommonScreen7vFUN_34Ev
	.word _ZN12CommonScreen7vFUN_38Ev
	.word _ZN15CommonSubScreen9fadeResetEv
	.word _ZN15CommonSubScreen10fadeUpdateEv
	.word _ZN15CommonSubScreen8blackOutEv
	.word _ZN15CommonSubScreen8whiteOutEv
	.word _ZN15CommonSubScreen6fadeInEv
	.word _ZN15CommonSubScreen9fadeBlackEv
	.word _ZN15CommonSubScreen9fadeWhiteEv
	.word _ZN15CommonSubScreen8isFadingEv
	.word _ZN15CommonSubScreen16isBrightAdjustedEv
	.word _ZN12CommonScreen8transferEPv
	.word _ZN12CommonScreen6signalEi
	.word _ZN12CommonScreen5stateEv
	.word FUN_ov116_02124d00
